target datalayout = "e-m:e-p270:32:32-p271:32:32-p272:64:64-i64:64-i128:128-f80:128-n8:16:32:64-S128"
target triple = "x86_64-pc-linux-gnu"

%struct._cwd_state = type { ptr, i64 }

@main_cwd_state = internal global %struct._cwd_state zeroinitializer, align 8

; Function Attrs: nounwind uwtable
define hidden void @virtual_cwd_main_cwd_init(i8 noundef zeroext %0) #0 {
  %2 = alloca i8, align 1
  %3 = alloca [4096 x i8], align 16
  %4 = alloca ptr, align 8
  store i8 %0, ptr %2, align 1, !tbaa !4
  call void @llvm.lifetime.start.p0(i64 4096, ptr %3) #16
  call void @llvm.lifetime.start.p0(i64 8, ptr %4) #16
  %5 = load i8, ptr %2, align 1, !tbaa !4
  %6 = icmp ne i8 %5, 0
  br i1 %6, label %7, label %9

7:                                                ; preds = %1
  %8 = load ptr, ptr @main_cwd_state, align 8, !tbaa !7
  call void @free(ptr noundef %8) #16
  br label %9

9:                                                ; preds = %7, %1
  %10 = getelementptr inbounds [4096 x i8], ptr %3, i64 0, i64 0
  %11 = call ptr @getcwd(ptr noundef %10, i64 noundef 4096) #16
  store ptr %11, ptr %4, align 8, !tbaa !12
  %12 = load ptr, ptr %4, align 8, !tbaa !12
  %13 = icmp ne ptr %12, null
  br i1 %13, label %16, label %14

14:                                               ; preds = %9
  %15 = getelementptr inbounds [4096 x i8], ptr %3, i64 0, i64 0
  store i8 0, ptr %15, align 16, !tbaa !4
  br label %16

16:                                               ; preds = %14, %9
  %17 = getelementptr inbounds [4096 x i8], ptr %3, i64 0, i64 0
  %18 = call i64 @strlen(ptr noundef %17) #17
  store i64 %18, ptr getelementptr inbounds nuw (%struct._cwd_state, ptr @main_cwd_state, i32 0, i32 1), align 8, !tbaa !13
  %19 = getelementptr inbounds [4096 x i8], ptr %3, i64 0, i64 0
  %20 = call noalias ptr @strdup(ptr noundef %19) #16
  store ptr %20, ptr @main_cwd_state, align 8, !tbaa !7
  call void @llvm.lifetime.end.p0(i64 8, ptr %4) #16
  call void @llvm.lifetime.end.p0(i64 4096, ptr %3) #16
  ret void
}