; Function Attrs: nounwind uwtable
define hidden void @virtual_cwd_main_cwd_init(i8 noundef zeroext %0) local_unnamed_addr #0 {
  %2 = alloca [4096 x i8], align 16
  call void @llvm.lifetime.start.p0(i64 4096, ptr nonnull %2) #22
  %.not = icmp eq i8 %0, 0
  br i1 %.not, label %5, label %3

3:                                                ; preds = %1
  %4 = load ptr, ptr @main_cwd_state.0, align 8, !tbaa !4
  tail call void @free(ptr noundef %4) #22
  br label %5

5:                                                ; preds = %3, %1
  %6 = call ptr @getcwd(ptr noundef nonnull %2, i64 noundef 4096) #22
  %.not1 = icmp eq ptr %6, null
  br i1 %.not1, label %7, label %8

7:                                                ; preds = %5
  store i8 0, ptr %2, align 16, !tbaa !11
  br label %8

8:                                                ; preds = %7, %5
  %9 = call i64 @strlen(ptr noundef nonnull dereferenceable(1) %2) #23
  store i64 %9, ptr @main_cwd_state.1, align 8, !tbaa !12
  %10 = call noalias ptr @strdup(ptr noundef nonnull %2) #22
  store ptr %10, ptr @main_cwd_state.0, align 8, !tbaa !4
  call void @llvm.lifetime.end.p0(i64 4096, ptr nonnull %2) #22
  ret void
}